; ModuleID = '2/183.c'
source_filename = "2/183.c"
target datalayout = "e-m:e-p270:32:32-p271:32:32-p272:64:64-i64:64-f80:128-n8:16:32:64-S128"
target triple = "x86_64-pc-linux-gnu"

%struct.book = type { i32, [26 x i8] }

@.str = private unnamed_addr constant [3 x i8] c"%d\00", align 1
@.str.1 = private unnamed_addr constant [6 x i8] c"%d %s\00", align 1
@.str.2 = private unnamed_addr constant [7 x i8] c"%c\0A%d\0A\00", align 1
@.str.3 = private unnamed_addr constant [4 x i8] c"%d\0A\00", align 1

; Function Attrs: noinline nounwind uwtable
define dso_local void @main() #0 {
  %1 = alloca i32, align 4
  %2 = alloca i32, align 4
  %3 = alloca i32, align 4
  %4 = alloca i32, align 4
  %5 = alloca [26 x i32], align 16
  %6 = alloca i8*, align 8
  %7 = alloca i64, align 8
  %8 = bitcast [26 x i32]* %5 to i8*
  call void @llvm.memset.p0i8.i64(i8* align 16 %8, i8 0, i64 104, i1 false)
  %9 = call i32 (i8*, ...) @__isoc99_scanf(i8* getelementptr inbounds ([3 x i8], [3 x i8]* @.str, i64 0, i64 0), i32* %1)
  %10 = load i32, i32* %1, align 4
  %11 = zext i32 %10 to i64
  %12 = call i8* @llvm.stacksave()
  store i8* %12, i8** %6, align 8
  %13 = alloca %struct.book, i64 %11, align 16
  store i64 %11, i64* %7, align 8
  store i32 0, i32* %2, align 4
  br label %14

14:                                               ; preds = %29, %0
  %15 = load i32, i32* %2, align 4
  %16 = load i32, i32* %1, align 4
  %17 = icmp slt i32 %15, %16
  br i1 %17, label %18, label %32

18:                                               ; preds = %14
  %19 = load i32, i32* %2, align 4
  %20 = sext i32 %19 to i64
  %21 = getelementptr inbounds %struct.book, %struct.book* %13, i64 %20
  %22 = getelementptr inbounds %struct.book, %struct.book* %21, i32 0, i32 0
  %23 = load i32, i32* %2, align 4
  %24 = sext i32 %23 to i64
  %25 = getelementptr inbounds %struct.book, %struct.book* %13, i64 %24
  %26 = getelementptr inbounds %struct.book, %struct.book* %25, i32 0, i32 1
  %27 = getelementptr inbounds [26 x i8], [26 x i8]* %26, i64 0, i64 0
  %28 = call i32 (i8*, ...) @__isoc99_scanf(i8* getelementptr inbounds ([6 x i8], [6 x i8]* @.str.1, i64 0, i64 0), i32* %22, i8* %27)
  br label %29

29:                                               ; preds = %18
  %30 = load i32, i32* %2, align 4
  %31 = add nsw i32 %30, 1
  store i32 %31, i32* %2, align 4
  br label %14

32:                                               ; preds = %14
  store i32 0, i32* %2, align 4
  br label %33

33:                                               ; preds = %67, %32
  %34 = load i32, i32* %2, align 4
  %35 = load i32, i32* %1, align 4
  %36 = icmp slt i32 %34, %35
  br i1 %36, label %37, label %70

37:                                               ; preds = %33
  store i32 0, i32* %3, align 4
  br label %38

38:                                               ; preds = %63, %37
  %39 = load i32, i32* %3, align 4
  %40 = sext i32 %39 to i64
  %41 = load i32, i32* %2, align 4
  %42 = sext i32 %41 to i64
  %43 = getelementptr inbounds %struct.book, %struct.book* %13, i64 %42
  %44 = getelementptr inbounds %struct.book, %struct.book* %43, i32 0, i32 1
  %45 = getelementptr inbounds [26 x i8], [26 x i8]* %44, i64 0, i64 0
  %46 = call i64 @strlen(i8* %45) #5
  %47 = icmp ult i64 %40, %46
  br i1 %47, label %48, label %66

48:                                               ; preds = %38
  %49 = load i32, i32* %2, align 4
  %50 = sext i32 %49 to i64
  %51 = getelementptr inbounds %struct.book, %struct.book* %13, i64 %50
  %52 = getelementptr inbounds %struct.book, %struct.book* %51, i32 0, i32 1
  %53 = load i32, i32* %3, align 4
  %54 = sext i32 %53 to i64
  %55 = getelementptr inbounds [26 x i8], [26 x i8]* %52, i64 0, i64 %54
  %56 = load i8, i8* %55, align 1
  %57 = sext i8 %56 to i32
  %58 = sub nsw i32 %57, 65
  %59 = sext i32 %58 to i64
  %60 = getelementptr inbounds [26 x i32], [26 x i32]* %5, i64 0, i64 %59
  %61 = load i32, i32* %60, align 4
  %62 = add nsw i32 %61, 1
  store i32 %62, i32* %60, align 4
  br label %63

63:                                               ; preds = %48
  %64 = load i32, i32* %3, align 4
  %65 = add nsw i32 %64, 1
  store i32 %65, i32* %3, align 4
  br label %38

66:                                               ; preds = %38
  br label %67

67:                                               ; preds = %66
  %68 = load i32, i32* %2, align 4
  %69 = add nsw i32 %68, 1
  store i32 %69, i32* %2, align 4
  br label %33

70:                                               ; preds = %33
  store i32 0, i32* %4, align 4
  store i32 1, i32* %2, align 4
  br label %71

71:                                               ; preds = %87, %70
  %72 = load i32, i32* %2, align 4
  %73 = icmp slt i32 %72, 26
  br i1 %73, label %74, label %90

74:                                               ; preds = %71
  %75 = load i32, i32* %2, align 4
  %76 = sext i32 %75 to i64
  %77 = getelementptr inbounds [26 x i32], [26 x i32]* %5, i64 0, i64 %76
  %78 = load i32, i32* %77, align 4
  %79 = load i32, i32* %4, align 4
  %80 = sext i32 %79 to i64
  %81 = getelementptr inbounds [26 x i32], [26 x i32]* %5, i64 0, i64 %80
  %82 = load i32, i32* %81, align 4
  %83 = icmp sgt i32 %78, %82
  br i1 %83, label %84, label %86

84:                                               ; preds = %74
  %85 = load i32, i32* %2, align 4
  store i32 %85, i32* %4, align 4
  br label %86

86:                                               ; preds = %84, %74
  br label %87

87:                                               ; preds = %86
  %88 = load i32, i32* %2, align 4
  %89 = add nsw i32 %88, 1
  store i32 %89, i32* %2, align 4
  br label %71

90:                                               ; preds = %71
  %91 = load i32, i32* %4, align 4
  %92 = add nsw i32 %91, 65
  %93 = load i32, i32* %4, align 4
  %94 = sext i32 %93 to i64
  %95 = getelementptr inbounds [26 x i32], [26 x i32]* %5, i64 0, i64 %94
  %96 = load i32, i32* %95, align 4
  %97 = call i32 (i8*, ...) @printf(i8* getelementptr inbounds ([7 x i8], [7 x i8]* @.str.2, i64 0, i64 0), i32 %92, i32 %96)
  store i32 0, i32* %2, align 4
  br label %98

98:                                               ; preds = %138, %90
  %99 = load i32, i32* %2, align 4
  %100 = load i32, i32* %1, align 4
  %101 = icmp slt i32 %99, %100
  br i1 %101, label %102, label %141

102:                                              ; preds = %98
  store i32 0, i32* %3, align 4
  br label %103

103:                                              ; preds = %134, %102
  %104 = load i32, i32* %3, align 4
  %105 = sext i32 %104 to i64
  %106 = load i32, i32* %2, align 4
  %107 = sext i32 %106 to i64
  %108 = getelementptr inbounds %struct.book, %struct.book* %13, i64 %107
  %109 = getelementptr inbounds %struct.book, %struct.book* %108, i32 0, i32 1
  %110 = getelementptr inbounds [26 x i8], [26 x i8]* %109, i64 0, i64 0
  %111 = call i64 @strlen(i8* %110) #5
  %112 = icmp ult i64 %105, %111
  br i1 %112, label %113, label %137

113:                                              ; preds = %103
  %114 = load i32, i32* %2, align 4
  %115 = sext i32 %114 to i64
  %116 = getelementptr inbounds %struct.book, %struct.book* %13, i64 %115
  %117 = getelementptr inbounds %struct.book, %struct.book* %116, i32 0, i32 1
  %118 = load i32, i32* %3, align 4
  %119 = sext i32 %118 to i64
  %120 = getelementptr inbounds [26 x i8], [26 x i8]* %117, i64 0, i64 %119
  %121 = load i8, i8* %120, align 1
  %122 = sext i8 %121 to i32
  %123 = load i32, i32* %4, align 4
  %124 = add nsw i32 65, %123
  %125 = icmp eq i32 %122, %124
  br i1 %125, label %126, label %133

126:                                              ; preds = %113
  %127 = load i32, i32* %2, align 4
  %128 = sext i32 %127 to i64
  %129 = getelementptr inbounds %struct.book, %struct.book* %13, i64 %128
  %130 = getelementptr inbounds %struct.book, %struct.book* %129, i32 0, i32 0
  %131 = load i32, i32* %130, align 16
  %132 = call i32 (i8*, ...) @printf(i8* getelementptr inbounds ([4 x i8], [4 x i8]* @.str.3, i64 0, i64 0), i32 %131)
  br label %133

133:                                              ; preds = %126, %113
  br label %134

134:                                              ; preds = %133
  %135 = load i32, i32* %3, align 4
  %136 = add nsw i32 %135, 1
  store i32 %136, i32* %3, align 4
  br label %103

137:                                              ; preds = %103
  br label %138

138:                                              ; preds = %137
  %139 = load i32, i32* %2, align 4
  %140 = add nsw i32 %139, 1
  store i32 %140, i32* %2, align 4
  br label %98

141:                                              ; preds = %98
  %142 = load i8*, i8** %6, align 8
  call void @llvm.stackrestore(i8* %142)
  ret void
}

; Function Attrs: argmemonly nounwind willreturn
declare void @llvm.memset.p0i8.i64(i8* nocapture writeonly, i8, i64, i1 immarg) #1

declare dso_local i32 @__isoc99_scanf(i8*, ...) #2

; Function Attrs: nounwind
declare i8* @llvm.stacksave() #3

; Function Attrs: nounwind readonly
declare dso_local i64 @strlen(i8*) #4

declare dso_local i32 @printf(i8*, ...) #2

; Function Attrs: nounwind
declare void @llvm.stackrestore(i8*) #3


!llvm.module.flags = !{!0}
!llvm.ident = !{!1}

!0 = !{i32 1, !"wchar_size", i32 4}
!1 = !{!"clang version 10.0.0-4ubuntu1 "}
